target datalayout = "e-m:e-p270:32:32-p271:32:32-p272:64:64-i64:64-i128:128-f80:128-n8:16:32:64-S128"
target triple = "x86_64-pc-linux-gnu"

%struct.LZ4IO_prefs_s = type { i32, i32, i32, i32, i64, i32, i32, i32, i32, i32, i32, i32, ptr, i32, i32 }

; Function Attrs: nounwind uwtable
define dso_local i32 @LZ4IO_setDictionaryFilename(ptr noundef %0, ptr noundef %1) #0 {
  %3 = alloca ptr, align 8
  %4 = alloca ptr, align 8
  store ptr %0, ptr %3, align 8, !tbaa !4
  store ptr %1, ptr %4, align 8, !tbaa !31
  %5 = load ptr, ptr %4, align 8, !tbaa !31
  %6 = load ptr, ptr %3, align 8, !tbaa !4
  %7 = getelementptr inbounds nuw %struct.LZ4IO_prefs_s, ptr %6, i32 0, i32 12
  store ptr %5, ptr %7, align 8, !tbaa !28
  %8 = load ptr, ptr %4, align 8, !tbaa !31
  %9 = icmp ne ptr %8, null
  %10 = zext i1 %9 to i32
  %11 = load ptr, ptr %3, align 8, !tbaa !4
  %12 = getelementptr inbounds nuw %struct.LZ4IO_prefs_s, ptr %11, i32 0, i32 10
  store i32 %10, ptr %12, align 4, !tbaa !26
  %13 = load ptr, ptr %3, align 8, !tbaa !4
  %14 = getelementptr inbounds nuw %struct.LZ4IO_prefs_s, ptr %13, i32 0, i32 10
  %15 = load i32, ptr %14, align 4, !tbaa !26
  ret i32 %15
}