; Function Attrs: mustprogress nofree norecurse nosync nounwind willreturn memory(argmem: write) uwtable
define dso_local range(i32 0, 2) i32 @LZ4IO_setDictionaryFilename(ptr noundef writeonly captures(none) initializes((44, 48), (56, 64)) %0, ptr noundef %1) local_unnamed_addr #8 {
  %3 = getelementptr inbounds nuw i8, ptr %0, i64 56
  store ptr %1, ptr %3, align 8, !tbaa !26
  %4 = icmp ne ptr %1, null
  %5 = zext i1 %4 to i32
  %6 = getelementptr inbounds nuw i8, ptr %0, i64 44
  store i32 %5, ptr %6, align 4, !tbaa !24
  ret i32 %5
}